target datalayout = "e-m:e-p270:32:32-p271:32:32-p272:64:64-i64:64-i128:128-f80:128-n8:16:32:64-S128"
target triple = "x86_64-pc-linux-gnu"

%struct._object = type { %union.anon, ptr }
%union.anon = type { i64 }
%struct.xmlparseobject = type { %struct._object, ptr, i32, i32, i32, i32, ptr, i32, i32, i8, ptr, ptr }

@_Py_NoneStruct = external global %struct._object, align 8
@.str.42 = private unnamed_addr constant [7 x i8] c"strict\00", align 1

; Function Attrs: nounwind uwtable
define internal ptr @conv_string_to_unicode(ptr noundef %0) #0 {
  %2 = alloca ptr, align 8
  %3 = alloca ptr, align 8
  store ptr %0, ptr %3, align 8, !tbaa !23
  %4 = load ptr, ptr %3, align 8, !tbaa !23
  %5 = icmp eq ptr %4, null
  br i1 %5, label %6, label %7

6:                                                ; preds = %1
  store ptr @_Py_NoneStruct, ptr %2, align 8
  br label %12

7:                                                ; preds = %1
  %8 = load ptr, ptr %3, align 8, !tbaa !23
  %9 = load ptr, ptr %3, align 8, !tbaa !23
  %10 = call i64 @strlen(ptr noundef %9) #8
  %11 = call ptr @PyUnicode_DecodeUTF8(ptr noundef %8, i64 noundef %10, ptr noundef @.str.42)
  store ptr %11, ptr %2, align 8
  br label %12

12:                                               ; preds = %7, %6
  %13 = load ptr, ptr %2, align 8
  ret ptr %13
}

; Function Attrs: nounwind uwtable
define internal ptr @pyexpat_xmlparser_GetBase_impl(ptr noundef %0) #0 {
  %2 = alloca ptr, align 8
  store ptr %0, ptr %2, align 8, !tbaa !8
  %3 = load ptr, ptr %2, align 8, !tbaa !8
  %4 = getelementptr inbounds nuw %struct.xmlparseobject, ptr %3, i32 0, i32 1
  %5 = load ptr, ptr %4, align 8, !tbaa !48
  %6 = call ptr @PyExpat_XML_GetBase(ptr noundef %5)
  %7 = call ptr @conv_string_to_unicode(ptr noundef %6)
  ret ptr %7
}

; Function Attrs: nounwind uwtable
define internal ptr @pyexpat_xmlparser_GetBase(ptr noundef %0, ptr noundef %1) #0 {
  %3 = alloca ptr, align 8
  %4 = alloca ptr, align 8
  store ptr %0, ptr %3, align 8, !tbaa !3
  store ptr %1, ptr %4, align 8, !tbaa !3
  %5 = load ptr, ptr %3, align 8, !tbaa !3
  %6 = call ptr @pyexpat_xmlparser_GetBase_impl(ptr noundef %5)
  ret ptr %6
}