; Function Attrs: nounwind uwtable
define internal ptr @pyexpat_xmlparser_GetBase(ptr noundef readonly captures(none) %0, ptr readnone captures(none) %1) #0 {
  %3 = getelementptr i8, ptr %0, i64 16
  %.val = load ptr, ptr %3, align 8, !tbaa !39
  %4 = tail call ptr @PyExpat_XML_GetBase(ptr noundef %.val) #8
  %5 = icmp eq ptr %4, null
  br i1 %5, label %pyexpat_xmlparser_GetBase_impl.exit, label %6

6:                                                ; preds = %2
  %7 = tail call i64 @strlen(ptr noundef nonnull dereferenceable(1) %4) #9
  %8 = tail call ptr @PyUnicode_DecodeUTF8(ptr noundef nonnull %4, i64 noundef %7, ptr noundef nonnull @.str.42) #8
  br label %pyexpat_xmlparser_GetBase_impl.exit

pyexpat_xmlparser_GetBase_impl.exit:              ; preds = %2, %6
  %.0.i.i = phi ptr [ %8, %6 ], [ @_Py_NoneStruct, %2 ]
  ret ptr %.0.i.i
}